; Function Attrs: nofree norecurse nosync nounwind memory(readwrite, inaccessiblemem: none) uwtable
define i32 @Acb_ObjComputePathD(ptr noundef readonly captures(none) %0, i32 noundef %1) local_unnamed_addr #7 {
  %3 = getelementptr i8, ptr %0, i64 136
  %.val = load ptr, ptr %3, align 8, !tbaa !21
  %4 = getelementptr i8, ptr %0, i64 152
  %.val15 = load ptr, ptr %4, align 8, !tbaa !21
  %5 = sext i32 %1 to i64
  %6 = getelementptr inbounds i32, ptr %.val, i64 %5
  %7 = load i32, ptr %6, align 4, !tbaa !22
  %8 = sext i32 %7 to i64
  %9 = getelementptr inbounds i32, ptr %.val15, i64 %8
  %10 = load i32, ptr %9, align 4, !tbaa !22
  %11 = icmp sgt i32 %10, 0
  br i1 %11, label %.lr.ph, label %.critedge

.lr.ph:                                           ; preds = %2
  %12 = getelementptr i8, ptr %0, i64 360
  %.val.i = load ptr, ptr %12, align 8, !tbaa !21
  %13 = getelementptr i8, ptr %0, i64 376
  %.val8.i = load ptr, ptr %13, align 8, !tbaa !21
  %14 = getelementptr i8, ptr %0, i64 120
  %.val7.i = load ptr, ptr %14, align 8, !tbaa !23
  %15 = getelementptr inbounds nuw i8, ptr %0, i64 100
  %16 = load i32, ptr %15, align 4, !tbaa !95
  %17 = getelementptr i8, ptr %0, i64 392
  %wide.trip.count = zext nneg i32 %10 to i64
  br label %18

18:                                               ; preds = %.lr.ph, %35
  %indvars.iv = phi i64 [ 0, %.lr.ph ], [ %indvars.iv.next, %35 ]
  %.022 = phi i32 [ 0, %.lr.ph ], [ %.1, %35 ]
  %indvars.iv.next = add nuw nsw i64 %indvars.iv, 1
  %19 = getelementptr inbounds nuw i32, ptr %9, i64 %indvars.iv.next
  %20 = load i32, ptr %19, align 4, !tbaa !22
  %21 = sext i32 %20 to i64
  %22 = getelementptr inbounds i32, ptr %.val.i, i64 %21
  %23 = load i32, ptr %22, align 4, !tbaa !22
  %24 = getelementptr inbounds i32, ptr %.val8.i, i64 %21
  %25 = load i32, ptr %24, align 4, !tbaa !22
  %26 = getelementptr inbounds i8, ptr %.val7.i, i64 %21
  %27 = load i8, ptr %26, align 1, !tbaa !24
  %28 = add i8 %27, -5
  %narrow.i.i = icmp ult i8 %28, -2
  %.neg = sext i1 %narrow.i.i to i32
  %29 = add i32 %25, %23
  %30 = sub i32 %16, %29
  %.not = icmp eq i32 %30, %.neg
  br i1 %.not, label %31, label %35

31:                                               ; preds = %18
  %.val16 = load ptr, ptr %17, align 8, !tbaa !21
  %32 = getelementptr inbounds i32, ptr %.val16, i64 %21
  %33 = load i32, ptr %32, align 4, !tbaa !22
  %34 = add nsw i32 %33, %.022
  br label %35

35:                                               ; preds = %18, %31
  %.1 = phi i32 [ %.022, %18 ], [ %34, %31 ]
  %exitcond.not = icmp eq i64 %indvars.iv.next, %wide.trip.count
  br i1 %exitcond.not, label %.critedge, label %18, !llvm.loop !99

.critedge:                                        ; preds = %35, %2
  %.0.lcssa = phi i32 [ 0, %2 ], [ %.1, %35 ]
  %36 = getelementptr i8, ptr %0, i64 392
  %.val17 = load ptr, ptr %36, align 8, !tbaa !21
  %37 = getelementptr inbounds i32, ptr %.val17, i64 %5
  store i32 %.0.lcssa, ptr %37, align 4, !tbaa !22
  ret i32 %.0.lcssa
}